; Function Attrs: nounwind uwtable
define internal fastcc void @png_write_complete_chunk(ptr noalias noundef %0, i32 noundef %1, ptr noundef %2, i64 noundef %3) unnamed_addr #1 {
  %5 = alloca [4 x i8], align 1
  %6 = alloca [8 x i8], align 1
  %7 = icmp eq ptr %0, null
  br i1 %7, label %49, label %8

8:                                                ; preds = %4
  %9 = icmp ugt i64 %3, 2147483647
  br i1 %9, label %10, label %png_write_chunk_header.exit

10:                                               ; preds = %8
  tail call void @png_error(ptr noundef nonnull %0, ptr noundef nonnull @.str.43) #13
  unreachable

png_write_chunk_header.exit:                      ; preds = %8
  tail call void @llvm.experimental.noalias.scope.decl(metadata !30)
  call void @llvm.lifetime.start.p0(i64 8, ptr nonnull %6) #12, !noalias !30
  %11 = getelementptr inbounds nuw i8, ptr %0, i64 1196
  store i32 34, ptr %11, align 4, !tbaa !6, !alias.scope !30
  %12 = lshr i64 %3, 24
  %13 = trunc nuw i64 %12 to i8
  store i8 %13, ptr %6, align 1, !tbaa !3, !noalias !30
  %14 = lshr i64 %3, 16
  %15 = trunc i64 %14 to i8
  %16 = getelementptr inbounds nuw i8, ptr %6, i64 1
  store i8 %15, ptr %16, align 1, !tbaa !3, !noalias !30
  %17 = lshr i64 %3, 8
  %18 = trunc i64 %17 to i8
  %19 = getelementptr inbounds nuw i8, ptr %6, i64 2
  store i8 %18, ptr %19, align 1, !tbaa !3, !noalias !30
  %20 = trunc i64 %3 to i8
  %21 = getelementptr inbounds nuw i8, ptr %6, i64 3
  store i8 %20, ptr %21, align 1, !tbaa !3, !noalias !30
  %22 = getelementptr inbounds nuw i8, ptr %6, i64 4
  %23 = lshr i32 %1, 24
  %24 = trunc nuw i32 %23 to i8
  store i8 %24, ptr %22, align 1, !tbaa !3, !noalias !30
  %25 = lshr i32 %1, 16
  %26 = trunc i32 %25 to i8
  %27 = getelementptr inbounds nuw i8, ptr %6, i64 5
  store i8 %26, ptr %27, align 1, !tbaa !3, !noalias !30
  %28 = lshr i32 %1, 8
  %29 = trunc i32 %28 to i8
  %30 = getelementptr inbounds nuw i8, ptr %6, i64 6
  store i8 %29, ptr %30, align 1, !tbaa !3, !noalias !30
  %31 = trunc i32 %1 to i8
  %32 = getelementptr inbounds nuw i8, ptr %6, i64 7
  store i8 %31, ptr %32, align 1, !tbaa !3, !noalias !30
  call void @png_write_data(ptr noundef nonnull %0, ptr noundef nonnull %6, i64 noundef 8) #12
  %33 = getelementptr inbounds nuw i8, ptr %0, i64 544
  store i32 %1, ptr %33, align 8, !tbaa !28, !alias.scope !30
  call void @png_reset_crc(ptr noundef nonnull %0) #12
  call void @png_calculate_crc(ptr noundef nonnull %0, ptr noundef nonnull %22, i64 noundef 4) #12
  store i32 66, ptr %11, align 4, !tbaa !6, !alias.scope !30
  call void @llvm.lifetime.end.p0(i64 8, ptr nonnull %6) #12, !noalias !30
  %34 = icmp ne ptr %2, null
  %35 = icmp ne i64 %3, 0
  %or.cond3.i = and i1 %34, %35
  br i1 %or.cond3.i, label %36, label %png_write_chunk_end.exit

36:                                               ; preds = %png_write_chunk_header.exit
  call void @png_write_data(ptr noundef nonnull %0, ptr noundef nonnull %2, i64 noundef %3) #12
  call void @png_calculate_crc(ptr noundef nonnull %0, ptr noundef nonnull %2, i64 noundef %3) #12
  br label %png_write_chunk_end.exit

png_write_chunk_end.exit:                         ; preds = %png_write_chunk_header.exit, %36
  call void @llvm.experimental.noalias.scope.decl(metadata !33)
  call void @llvm.lifetime.start.p0(i64 4, ptr nonnull %5) #12, !noalias !33
  store i32 130, ptr %11, align 4, !tbaa !6, !alias.scope !33
  %37 = getelementptr inbounds nuw i8, ptr %0, i64 596
  %38 = load i32, ptr %37, align 4, !tbaa !29, !alias.scope !33
  %39 = lshr i32 %38, 24
  %40 = trunc nuw i32 %39 to i8
  store i8 %40, ptr %5, align 1, !tbaa !3, !noalias !33
  %41 = lshr i32 %38, 16
  %42 = trunc i32 %41 to i8
  %43 = getelementptr inbounds nuw i8, ptr %5, i64 1
  store i8 %42, ptr %43, align 1, !tbaa !3, !noalias !33
  %44 = lshr i32 %38, 8
  %45 = trunc i32 %44 to i8
  %46 = getelementptr inbounds nuw i8, ptr %5, i64 2
  store i8 %45, ptr %46, align 1, !tbaa !3, !noalias !33
  %47 = trunc i32 %38 to i8
  %48 = getelementptr inbounds nuw i8, ptr %5, i64 3
  store i8 %47, ptr %48, align 1, !tbaa !3, !noalias !33
  call void @png_write_data(ptr noundef nonnull %0, ptr noundef nonnull %5, i64 noundef 4) #12
  call void @llvm.lifetime.end.p0(i64 4, ptr nonnull %5) #12, !noalias !33
  br label %49

49:                                               ; preds = %4, %png_write_chunk_end.exit
  ret void
}